(dp1
S'output'
p2
S"<type 'exceptions.AttributeError'> 'DAL' object has no attribute 'student'"
p3
sS'layer'
p4
S'/home/boris/Work/deploy-web2py-local/applications/cpfecys/controllers/user_project.py'
p5
sS'code'
p6
S'# coding: utf8\n# intente algo como\ndef index():\n    grid = SQLFORM.grid(db.user_project)\n    return locals()\n\nresponse._vars=response._caller(index)\n'
p7
sS'snapshot'
p8
(dp9
sS'traceback'
p10
S'Traceback (most recent call last):\n  File "/home/boris/Work/deploy-web2py-local/gluon/restricted.py", line 217, in restricted\n    exec ccode in environment\n  File "/home/boris/Work/deploy-web2py-local/applications/cpfecys/controllers/user_project.py", line 7, in <module>\n  File "/home/boris/Work/deploy-web2py-local/gluon/globals.py", line 372, in <lambda>\n    self._caller = lambda f: f()\n  File "/home/boris/Work/deploy-web2py-local/applications/cpfecys/controllers/user_project.py", line 4, in index\n    grid = SQLFORM.grid(db.user_project)\n  File "/home/boris/Work/deploy-web2py-local/gluon/sqlhtml.py", line 2373, in grid\n    value = field.represent(value, row)\n  File "/home/boris/Work/deploy-web2py-local/applications/cpfecys/models/db.py", line 105, in <lambda>\n    db.user_project.student.represent = lambda id,row: db.student(row.student).select()\n  File "/home/boris/Work/deploy-web2py-local/gluon/dal.py", line 8017, in __getattr__\n    return ogetattr(self, key)\nAttributeError: \'DAL\' object has no attribute \'student\'\n'
p11
s.