(dp1
S'output'
p2
S"<type 'exceptions.TypeError'> list indices must be integers, not str"
p3
sS'layer'
p4
S'/home/boris/Work/deploy-web2py-local/applications/cpfecys/controllers/abstract.py'
p5
sS'code'
p6
S'# coding: utf8\n# intente algo como\ndef index(): return dict(message="hello from abstract.py")\n\ndef user_active():\n    session = request.args[\'session\']\n    if session is None:\n        success = True\n    else:\n        success = False\n    return dict(success=success)\n\nresponse._vars=response._caller(user_active)\n'
p7
sS'snapshot'
p8
(dp9
sS'traceback'
p10
S'Traceback (most recent call last):\n  File "/home/boris/Work/deploy-web2py-local/gluon/restricted.py", line 217, in restricted\n    exec ccode in environment\n  File "/home/boris/Work/deploy-web2py-local/applications/cpfecys/controllers/abstract.py", line 13, in <module>\n  File "/home/boris/Work/deploy-web2py-local/gluon/globals.py", line 372, in <lambda>\n    self._caller = lambda f: f()\n  File "/home/boris/Work/deploy-web2py-local/applications/cpfecys/controllers/abstract.py", line 6, in user_active\n    session = request.args[\'session\']\nTypeError: list indices must be integers, not str\n'
p11
s.